; Function Attrs: nounwind uwtable
define i64 @cert_store_remove_trusted() local_unnamed_addr #1 {
  %1 = tail call i32 @pthread_mutex_lock(ptr noundef nonnull @_cert_store) #15
  %.not = icmp eq i32 %1, 0
  br i1 %.not, label %4, label %2

2:                                                ; preds = %0
  %3 = tail call ptr @__errno_location() #16
  store i32 %1, ptr %3, align 4
  tail call void (i32, ptr, ...) @mprintf(i32 noundef 5, ptr noundef nonnull @.str) #15
  br label %4

4:                                                ; preds = %2, %0
  %5 = load i8, ptr getelementptr inbounds (%struct.cert_store_t, ptr @_cert_store, i64 0, i32 1), align 8
  %6 = trunc i8 %5 to i1
  br i1 %6, label %7, label %cert_store_free_cert_list_int.exit

7:                                                ; preds = %4
  %8 = load i64, ptr getelementptr inbounds (%struct.cert_store_t, ptr @_cert_store, i64 0, i32 3, i32 1), align 8
  %9 = load ptr, ptr getelementptr inbounds (%struct.cert_store_t, ptr @_cert_store, i64 0, i32 3), align 8
  %.not12.i = icmp eq ptr %9, null
  br i1 %.not12.i, label %cert_store_free_cert_list_int.exit, label %.preheader.i

.preheader.i:                                     ; preds = %7
  %.not14.i = icmp eq i64 %8, 0
  br i1 %.not14.i, label %._crit_edge.i, label %.lr.ph.i

.lr.ph.i:                                         ; preds = %.preheader.i, %.lr.ph.i
  %.013.i = phi i64 [ %15, %.lr.ph.i ], [ 0, %.preheader.i ]
  %10 = load ptr, ptr getelementptr inbounds (%struct.cert_store_t, ptr @_cert_store, i64 0, i32 3), align 8
  %11 = getelementptr inbounds ptr, ptr %10, i64 %.013.i
  %12 = load ptr, ptr %11, align 8
  tail call void @X509_free(ptr noundef %12) #15
  %13 = load ptr, ptr getelementptr inbounds (%struct.cert_store_t, ptr @_cert_store, i64 0, i32 3), align 8
  %14 = getelementptr inbounds ptr, ptr %13, i64 %.013.i
  store ptr null, ptr %14, align 8
  %15 = add nuw i64 %.013.i, 1
  %16 = load i64, ptr getelementptr inbounds (%struct.cert_store_t, ptr @_cert_store, i64 0, i32 3, i32 1), align 8
  %17 = icmp ult i64 %15, %16
  br i1 %17, label %.lr.ph.i, label %._crit_edge.loopexit.i

._crit_edge.loopexit.i:                           ; preds = %.lr.ph.i
  %.pre.i = load ptr, ptr getelementptr inbounds (%struct.cert_store_t, ptr @_cert_store, i64 0, i32 3), align 8
  br label %._crit_edge.i

._crit_edge.i:                                    ; preds = %._crit_edge.loopexit.i, %.preheader.i
  %18 = phi ptr [ %.pre.i, %._crit_edge.loopexit.i ], [ %9, %.preheader.i ]
  tail call void @free(ptr noundef %18) #15
  tail call void @llvm.memset.p0.i64(ptr noundef nonnull align 8 dereferenceable(16) getelementptr inbounds (%struct.cert_store_t, ptr @_cert_store, i64 0, i32 3), i8 0, i64 16, i1 false)
  br label %cert_store_free_cert_list_int.exit

cert_store_free_cert_list_int.exit:               ; preds = %._crit_edge.i, %7, %4
  %.0 = phi i64 [ 0, %4 ], [ %8, %7 ], [ %8, %._crit_edge.i ]
  %19 = tail call i32 @pthread_mutex_unlock(ptr noundef nonnull @_cert_store) #15
  %.not7 = icmp eq i32 %19, 0
  br i1 %.not7, label %22, label %20

20:                                               ; preds = %cert_store_free_cert_list_int.exit
  %21 = tail call ptr @__errno_location() #16
  store i32 %19, ptr %21, align 4
  tail call void (i32, ptr, ...) @mprintf(i32 noundef 5, ptr noundef nonnull @.str.1) #15
  br label %22

22:                                               ; preds = %20, %cert_store_free_cert_list_int.exit
  ret i64 %.0
}